target datalayout = "e-m:e-p270:32:32-p271:32:32-p272:64:64-i64:64-i128:128-f80:128-n8:16:32:64-S128"
target triple = "x86_64-pc-linux-gnu"

%struct.CRYPTO_REF_COUNT = type { i32 }
%struct.bio_st = type { ptr, ptr, ptr, ptr, ptr, i32, i32, i32, i32, i32, ptr, ptr, ptr, %struct.CRYPTO_REF_COUNT, i64, i64, %struct.crypto_ex_data_st }
%struct.crypto_ex_data_st = type { ptr, ptr }

; Function Attrs: nounwind uwtable
define ptr @BIO_pop(ptr noundef %0) #0 {
  %2 = alloca ptr, align 8
  %3 = alloca ptr, align 8
  %4 = alloca ptr, align 8
  %5 = alloca i32, align 4
  store ptr %0, ptr %3, align 8, !tbaa !10
  call void @llvm.lifetime.start.p0(i64 8, ptr %4) #5
  %6 = load ptr, ptr %3, align 8, !tbaa !10
  %7 = icmp eq ptr %6, null
  br i1 %7, label %8, label %9

8:                                                ; preds = %1
  store ptr null, ptr %2, align 8
  store i32 1, ptr %5, align 4
  br label %47

9:                                                ; preds = %1
  %10 = load ptr, ptr %3, align 8, !tbaa !10
  %11 = getelementptr inbounds nuw %struct.bio_st, ptr %10, i32 0, i32 11
  %12 = load ptr, ptr %11, align 8, !tbaa !66
  store ptr %12, ptr %4, align 8, !tbaa !10
  %13 = load ptr, ptr %3, align 8, !tbaa !10
  %14 = load ptr, ptr %3, align 8, !tbaa !10
  %15 = call i64 @BIO_ctrl(ptr noundef %13, i32 noundef 7, i64 noundef 0, ptr noundef %14)
  %16 = load ptr, ptr %3, align 8, !tbaa !10
  %17 = getelementptr inbounds nuw %struct.bio_st, ptr %16, i32 0, i32 12
  %18 = load ptr, ptr %17, align 8, !tbaa !68
  %19 = icmp ne ptr %18, null
  br i1 %19, label %20, label %28

20:                                               ; preds = %9
  %21 = load ptr, ptr %3, align 8, !tbaa !10
  %22 = getelementptr inbounds nuw %struct.bio_st, ptr %21, i32 0, i32 11
  %23 = load ptr, ptr %22, align 8, !tbaa !66
  %24 = load ptr, ptr %3, align 8, !tbaa !10
  %25 = getelementptr inbounds nuw %struct.bio_st, ptr %24, i32 0, i32 12
  %26 = load ptr, ptr %25, align 8, !tbaa !68
  %27 = getelementptr inbounds nuw %struct.bio_st, ptr %26, i32 0, i32 11
  store ptr %23, ptr %27, align 8, !tbaa !66
  br label %28

28:                                               ; preds = %20, %9
  %29 = load ptr, ptr %3, align 8, !tbaa !10
  %30 = getelementptr inbounds nuw %struct.bio_st, ptr %29, i32 0, i32 11
  %31 = load ptr, ptr %30, align 8, !tbaa !66
  %32 = icmp ne ptr %31, null
  br i1 %32, label %33, label %41

33:                                               ; preds = %28
  %34 = load ptr, ptr %3, align 8, !tbaa !10
  %35 = getelementptr inbounds nuw %struct.bio_st, ptr %34, i32 0, i32 12
  %36 = load ptr, ptr %35, align 8, !tbaa !68
  %37 = load ptr, ptr %3, align 8, !tbaa !10
  %38 = getelementptr inbounds nuw %struct.bio_st, ptr %37, i32 0, i32 11
  %39 = load ptr, ptr %38, align 8, !tbaa !66
  %40 = getelementptr inbounds nuw %struct.bio_st, ptr %39, i32 0, i32 12
  store ptr %36, ptr %40, align 8, !tbaa !68
  br label %41

41:                                               ; preds = %33, %28
  %42 = load ptr, ptr %3, align 8, !tbaa !10
  %43 = getelementptr inbounds nuw %struct.bio_st, ptr %42, i32 0, i32 11
  store ptr null, ptr %43, align 8, !tbaa !66
  %44 = load ptr, ptr %3, align 8, !tbaa !10
  %45 = getelementptr inbounds nuw %struct.bio_st, ptr %44, i32 0, i32 12
  store ptr null, ptr %45, align 8, !tbaa !68
  %46 = load ptr, ptr %4, align 8, !tbaa !10
  store ptr %46, ptr %2, align 8
  store i32 1, ptr %5, align 4
  br label %47

47:                                               ; preds = %41, %8
  call void @llvm.lifetime.end.p0(i64 8, ptr %4) #5
  %48 = load ptr, ptr %2, align 8
  ret ptr %48
}