; Function Attrs: nounwind uwtable
define ptr @BIO_pop(ptr noundef %0) local_unnamed_addr #0 {
  %2 = icmp eq ptr %0, null
  br i1 %2, label %15, label %3

3:                                                ; preds = %1
  %4 = getelementptr inbounds nuw i8, ptr %0, i64 72
  %5 = load ptr, ptr %4, align 8, !tbaa !56
  %6 = tail call i64 @BIO_ctrl(ptr noundef nonnull %0, i32 noundef 7, i64 noundef 0, ptr noundef nonnull %0)
  %7 = getelementptr inbounds nuw i8, ptr %0, i64 80
  %8 = load ptr, ptr %7, align 8, !tbaa !58
  %.not = icmp eq ptr %8, null
  %.pre = load ptr, ptr %4, align 8, !tbaa !56
  br i1 %.not, label %11, label %9

9:                                                ; preds = %3
  %10 = getelementptr inbounds nuw i8, ptr %8, i64 72
  store ptr %.pre, ptr %10, align 8, !tbaa !56
  br label %11

11:                                               ; preds = %9, %3
  %.not17 = icmp eq ptr %.pre, null
  br i1 %.not17, label %14, label %12

12:                                               ; preds = %11
  %13 = getelementptr inbounds nuw i8, ptr %.pre, i64 80
  store ptr %8, ptr %13, align 8, !tbaa !58
  br label %14

14:                                               ; preds = %12, %11
  tail call void @llvm.memset.p0.i64(ptr noundef nonnull align 8 dereferenceable(16) %4, i8 0, i64 16, i1 false)
  br label %15

15:                                               ; preds = %1, %14
  %.0 = phi ptr [ %5, %14 ], [ null, %1 ]
  ret ptr %.0
}